; Function Attrs: mustprogress nofree norecurse nosync nounwind willreturn memory(argmem: read) uwtable
define noundef range(i32 0, 86) i32 @_ZNK7Imf_3_48TimeCode7secondsEv(ptr noundef nonnull readonly align 4 captures(none) dereferenceable(8) %0) local_unnamed_addr #3 align 2 {
  %2 = load i32, ptr %0, align 4, !tbaa !3
  %3 = lshr i32 %2, 8
  %4 = and i32 %3, 15
  %5 = lshr i32 %2, 12
  %6 = and i32 %5, 7
  %7 = mul nuw nsw i32 %6, 10
  %8 = add nuw nsw i32 %7, %4
  ret i32 %8
}